; Function Attrs: nounwind uwtable
define internal noundef i32 @IDABandSolve(ptr noundef readonly captures(none) %0, ptr noundef %1, ptr readnone captures(none) %2, ptr readnone captures(none) %3, ptr readnone captures(none) %4, ptr readnone captures(none) %5) #0 {
  %7 = getelementptr inbounds nuw i8, ptr %0, i64 1632
  %8 = load ptr, ptr %7, align 8, !tbaa !40
  %9 = tail call ptr @N_VGetArrayPointer(ptr noundef %1) #7
  %10 = getelementptr inbounds nuw i8, ptr %8, i64 72
  %11 = load ptr, ptr %10, align 8, !tbaa !38
  %12 = getelementptr inbounds nuw i8, ptr %8, i64 88
  %13 = load ptr, ptr %12, align 8, !tbaa !39
  tail call void @BandGBTRS(ptr noundef %11, ptr noundef %13, ptr noundef %9) #7
  %14 = getelementptr inbounds nuw i8, ptr %0, i64 1224
  %15 = load double, ptr %14, align 8, !tbaa !47
  %16 = fcmp une double %15, 1.000000e+00
  br i1 %16, label %17, label %20

17:                                               ; preds = %6
  %18 = fadd double %15, 1.000000e+00
  %19 = fdiv double 2.000000e+00, %18
  tail call void @N_VScale(double noundef %19, ptr noundef %1, ptr noundef %1) #7
  br label %20

20:                                               ; preds = %17, %6
  %21 = getelementptr inbounds nuw i8, ptr %8, i64 112
  store i64 0, ptr %21, align 8, !tbaa !32
  ret i32 0
}